; Function Attrs: nounwind sspstrong uwtable
define internal void @tpci200_write_las1(ptr noundef %opaque, i64 noundef %addr, i64 noundef %val, i32 noundef %size) #0 {
entry:
  %arrayidx = getelementptr i8, ptr %opaque, i64 4385
  %0 = load i8, ptr %arrayidx, align 1
  %tobool = trunc i8 %0 to i1
  %cmp.i = icmp eq i32 %size, 1
  %or.cond.i = and i1 %cmp.i, %tobool
  br i1 %or.cond.i, label %adjust_addr.exit.thread, label %adjust_addr.exit

adjust_addr.exit.thread:                          ; preds = %entry
  %xor.i = xor i64 %addr, 1
  br label %adjust_value.exit

adjust_addr.exit:                                 ; preds = %entry
  %cmp.i17 = icmp eq i32 %size, 2
  %or.cond.i18 = and i1 %cmp.i17, %tobool
  br i1 %or.cond.i18, label %if.then.i19, label %adjust_value.exit

if.then.i19:                                      ; preds = %adjust_addr.exit
  %conv.i = trunc i64 %val to i16
  %1 = tail call i16 @llvm.bswap.i16(i16 %conv.i)
  %conv1.i = zext i16 %1 to i64
  br label %adjust_value.exit

adjust_value.exit:                                ; preds = %adjust_addr.exit.thread, %adjust_addr.exit, %if.then.i19
  %addr.addr.030 = phi i64 [ %addr, %if.then.i19 ], [ %addr, %adjust_addr.exit ], [ %xor.i, %adjust_addr.exit.thread ]
  %val.addr.0 = phi i64 [ %conv1.i, %if.then.i19 ], [ %val, %adjust_addr.exit ], [ %val, %adjust_addr.exit.thread ]
  %shr = lshr i64 %addr.addr.030, 8
  %conv = trunc i64 %shr to i32
  %bus = getelementptr inbounds nuw i8, ptr %opaque, i64 2608
  %call6 = tail call ptr @ipack_device_find(ptr noundef nonnull %bus, i32 noundef %conv) #6
  %cmp = icmp eq ptr %call6, null
  br i1 %cmp, label %if.end30, label %if.else

if.else:                                          ; preds = %adjust_value.exit
  %2 = trunc i64 %addr.addr.030 to i32
  %3 = lshr i32 %2, 6
  %conv5 = and i32 %3, 3
  %call.i = tail call ptr @object_get_class(ptr noundef nonnull %call6) #6
  %call1.i = tail call ptr @object_class_dynamic_cast_assert(ptr noundef %call.i, ptr noundef nonnull @.str.14, ptr noundef nonnull @.str.15, i32 noundef 34, ptr noundef nonnull @__func__.IPACK_DEVICE_GET_CLASS) #6
  switch i32 %conv5, label %sw.default [
    i32 2, label %sw.bb
    i32 3, label %sw.bb15
  ]

sw.bb:                                            ; preds = %if.else
  %id_write = getelementptr inbounds nuw i8, ptr %call1.i, i64 216
  %4 = load ptr, ptr %id_write, align 8
  %tobool11.not = icmp eq ptr %4, null
  br i1 %tobool11.not, label %if.end30, label %if.end30.sink.split

sw.bb15:                                          ; preds = %if.else
  %int_write = getelementptr inbounds nuw i8, ptr %call1.i, i64 232
  %5 = load ptr, ptr %int_write, align 8
  %tobool18.not = icmp eq ptr %5, null
  br i1 %tobool18.not, label %if.end30, label %if.end30.sink.split

sw.default:                                       ; preds = %if.else
  %io_write = getelementptr inbounds nuw i8, ptr %call1.i, i64 200
  %6 = load ptr, ptr %io_write, align 8
  %tobool25.not = icmp eq ptr %6, null
  br i1 %tobool25.not, label %if.end30, label %if.end30.sink.split

if.end30.sink.split:                              ; preds = %sw.default, %sw.bb15, %sw.bb
  %.sink32 = phi i8 [ 63, %sw.bb ], [ 63, %sw.bb15 ], [ 127, %sw.default ]
  %.sink = phi ptr [ %4, %sw.bb ], [ %5, %sw.bb15 ], [ %6, %sw.default ]
  %7 = trunc i64 %addr.addr.030 to i8
  %conv10 = and i8 %.sink32, %7
  %conv14 = trunc i64 %val.addr.0 to i16
  tail call void %.sink(ptr noundef nonnull %call6, i8 noundef zeroext %conv10, i16 noundef zeroext %conv14) #6
  br label %if.end30

if.end30:                                         ; preds = %if.end30.sink.split, %sw.bb, %sw.bb15, %sw.default, %adjust_value.exit
  ret void
}